target datalayout = "e-m:e-p270:32:32-p271:32:32-p272:64:64-i64:64-i128:128-f80:128-n8:16:32:64-S128"
target triple = "x86_64-pc-linux-gnu"

%struct._typeobject = type { %struct.PyVarObject, ptr, i64, i64, ptr, i64, ptr, ptr, ptr, ptr, ptr, ptr, ptr, ptr, ptr, ptr, ptr, ptr, ptr, i64, ptr, ptr, ptr, ptr, i64, ptr, ptr, ptr, ptr, ptr, ptr, ptr, ptr, ptr, i64, ptr, ptr, ptr, ptr, ptr, ptr, ptr, ptr, ptr, ptr, ptr, i32, ptr, ptr, i8, i16 }
%struct.PyVarObject = type { %struct._object, i64 }
%struct._object = type { %union.anon, ptr }
%union.anon = type { i64 }
%struct.filterobject = type { %struct._object, ptr, ptr }
%struct.anon = type { i32, i32 }

@_Py_NoneStruct = external global %struct._object, align 8
@PyBool_Type = external global %struct._typeobject, align 8

; Function Attrs: alwaysinline nounwind uwtable
define internal i32 @_Py_IsImmortal(ptr noundef %0) #3 {
  %2 = alloca ptr, align 8
  store ptr %0, ptr %2, align 8, !tbaa !4
  %3 = load ptr, ptr %2, align 8, !tbaa !4
  %4 = getelementptr inbounds nuw %struct._object, ptr %3, i32 0, i32 0
  %5 = getelementptr inbounds nuw %struct.anon, ptr %4, i32 0, i32 0
  %6 = load i32, ptr %5, align 8, !tbaa !74
  %7 = icmp slt i32 %6, 0
  %8 = zext i1 %7 to i32
  ret i32 %8
}

; Function Attrs: alwaysinline nounwind uwtable
define internal void @Py_DECREF(ptr noundef %0) #3 {
  %2 = alloca ptr, align 8
  store ptr %0, ptr %2, align 8, !tbaa !4
  %3 = load ptr, ptr %2, align 8, !tbaa !4
  %4 = call i32 @_Py_IsImmortal(ptr noundef %3)
  %5 = icmp ne i32 %4, 0
  br i1 %5, label %6, label %7

6:                                                ; preds = %1
  br label %16

7:                                                ; preds = %1
  %8 = load ptr, ptr %2, align 8, !tbaa !4
  %9 = getelementptr inbounds nuw %struct._object, ptr %8, i32 0, i32 0
  %10 = getelementptr inbounds nuw %struct.anon, ptr %9, i32 0, i32 0
  %11 = load i32, ptr %10, align 8, !tbaa !74
  %12 = add i32 %11, -1
  store i32 %12, ptr %10, align 8, !tbaa !74
  %13 = icmp eq i32 %12, 0
  br i1 %13, label %14, label %16

14:                                               ; preds = %7
  %15 = load ptr, ptr %2, align 8, !tbaa !4
  call void @_Py_Dealloc(ptr noundef %15)
  br label %16

16:                                               ; preds = %6, %14, %7
  ret void
}

; Function Attrs: inlinehint nounwind uwtable
define internal ptr @_Py_TYPE(ptr noundef %0) #4 {
  %2 = alloca ptr, align 8
  store ptr %0, ptr %2, align 8, !tbaa !4
  %3 = load ptr, ptr %2, align 8, !tbaa !4
  %4 = getelementptr inbounds nuw %struct._object, ptr %3, i32 0, i32 1
  %5 = load ptr, ptr %4, align 8, !tbaa !75
  ret ptr %5
}

; Function Attrs: nounwind uwtable
define internal ptr @filter_next(ptr noundef %0) #0 {
  %2 = alloca ptr, align 8
  %3 = alloca ptr, align 8
  %4 = alloca ptr, align 8
  %5 = alloca ptr, align 8
  %6 = alloca ptr, align 8
  %7 = alloca i64, align 8
  %8 = alloca ptr, align 8
  %9 = alloca i32, align 4
  %10 = alloca i32, align 4
  %11 = alloca ptr, align 8
  store ptr %0, ptr %3, align 8, !tbaa !4
  call void @llvm.lifetime.start.p0(i64 8, ptr %4) #9
  %12 = load ptr, ptr %3, align 8, !tbaa !4
  store ptr %12, ptr %4, align 8, !tbaa !9
  call void @llvm.lifetime.start.p0(i64 8, ptr %5) #9
  call void @llvm.lifetime.start.p0(i64 8, ptr %6) #9
  %13 = load ptr, ptr %4, align 8, !tbaa !9
  %14 = getelementptr inbounds nuw %struct.filterobject, ptr %13, i32 0, i32 2
  %15 = load ptr, ptr %14, align 8, !tbaa !35
  store ptr %15, ptr %6, align 8, !tbaa !4
  call void @llvm.lifetime.start.p0(i64 8, ptr %7) #9
  call void @llvm.lifetime.start.p0(i64 8, ptr %8) #9
  call void @llvm.lifetime.start.p0(i64 4, ptr %9) #9
  %16 = load ptr, ptr %4, align 8, !tbaa !9
  %17 = getelementptr inbounds nuw %struct.filterobject, ptr %16, i32 0, i32 1
  %18 = load ptr, ptr %17, align 8, !tbaa !33
  %19 = icmp eq ptr %18, @_Py_NoneStruct
  br i1 %19, label %25, label %20

20:                                               ; preds = %1
  %21 = load ptr, ptr %4, align 8, !tbaa !9
  %22 = getelementptr inbounds nuw %struct.filterobject, ptr %21, i32 0, i32 1
  %23 = load ptr, ptr %22, align 8, !tbaa !33
  %24 = icmp eq ptr %23, @PyBool_Type
  br label %25

25:                                               ; preds = %20, %1
  %26 = phi i1 [ true, %1 ], [ %24, %20 ]
  %27 = zext i1 %26 to i32
  store i32 %27, ptr %9, align 4, !tbaa !38
  %28 = load ptr, ptr %6, align 8, !tbaa !4
  %29 = call ptr @_Py_TYPE(ptr noundef %28)
  %30 = getelementptr inbounds nuw %struct._typeobject, ptr %29, i32 0, i32 26
  %31 = load ptr, ptr %30, align 8, !tbaa !39
  store ptr %31, ptr %8, align 8, !tbaa !9
  br label %32

32:                                               ; preds = %74, %25
  %33 = load ptr, ptr %8, align 8, !tbaa !9
  %34 = load ptr, ptr %6, align 8, !tbaa !4
  %35 = call ptr %33(ptr noundef %34)
  store ptr %35, ptr %5, align 8, !tbaa !4
  %36 = load ptr, ptr %5, align 8, !tbaa !4
  %37 = icmp eq ptr %36, null
  br i1 %37, label %38, label %39

38:                                               ; preds = %32
  store ptr null, ptr %2, align 8
  store i32 1, ptr %10, align 4
  br label %75

39:                                               ; preds = %32
  %40 = load i32, ptr %9, align 4, !tbaa !38
  %41 = icmp ne i32 %40, 0
  br i1 %41, label %42, label %46

42:                                               ; preds = %39
  %43 = load ptr, ptr %5, align 8, !tbaa !4
  %44 = call i32 @PyObject_IsTrue(ptr noundef %43)
  %45 = sext i32 %44 to i64
  store i64 %45, ptr %7, align 8, !tbaa !40
  br label %64

46:                                               ; preds = %39
  call void @llvm.lifetime.start.p0(i64 8, ptr %11) #9
  %47 = load ptr, ptr %4, align 8, !tbaa !9
  %48 = getelementptr inbounds nuw %struct.filterobject, ptr %47, i32 0, i32 1
  %49 = load ptr, ptr %48, align 8, !tbaa !33
  %50 = load ptr, ptr %5, align 8, !tbaa !4
  %51 = call ptr @PyObject_CallOneArg(ptr noundef %49, ptr noundef %50)
  store ptr %51, ptr %11, align 8, !tbaa !4
  %52 = load ptr, ptr %11, align 8, !tbaa !4
  %53 = icmp eq ptr %52, null
  br i1 %53, label %54, label %56

54:                                               ; preds = %46
  %55 = load ptr, ptr %5, align 8, !tbaa !4
  call void @Py_DECREF(ptr noundef %55)
  store ptr null, ptr %2, align 8
  store i32 1, ptr %10, align 4
  br label %61

56:                                               ; preds = %46
  %57 = load ptr, ptr %11, align 8, !tbaa !4
  %58 = call i32 @PyObject_IsTrue(ptr noundef %57)
  %59 = sext i32 %58 to i64
  store i64 %59, ptr %7, align 8, !tbaa !40
  %60 = load ptr, ptr %11, align 8, !tbaa !4
  call void @Py_DECREF(ptr noundef %60)
  store i32 0, ptr %10, align 4
  br label %61

61:                                               ; preds = %56, %54
  call void @llvm.lifetime.end.p0(i64 8, ptr %11) #9
  %62 = load i32, ptr %10, align 4
  switch i32 %62, label %75 [
    i32 0, label %63
  ]

63:                                               ; preds = %61
  br label %64

64:                                               ; preds = %63, %42
  %65 = load i64, ptr %7, align 8, !tbaa !40
  %66 = icmp sgt i64 %65, 0
  br i1 %66, label %67, label %69

67:                                               ; preds = %64
  %68 = load ptr, ptr %5, align 8, !tbaa !4
  store ptr %68, ptr %2, align 8
  store i32 1, ptr %10, align 4
  br label %75

69:                                               ; preds = %64
  %70 = load ptr, ptr %5, align 8, !tbaa !4
  call void @Py_DECREF(ptr noundef %70)
  %71 = load i64, ptr %7, align 8, !tbaa !40
  %72 = icmp slt i64 %71, 0
  br i1 %72, label %73, label %74

73:                                               ; preds = %69
  store ptr null, ptr %2, align 8
  store i32 1, ptr %10, align 4
  br label %75

74:                                               ; preds = %69
  br label %32

75:                                               ; preds = %73, %67, %61, %38
  call void @llvm.lifetime.end.p0(i64 4, ptr %9) #9
  call void @llvm.lifetime.end.p0(i64 8, ptr %8) #9
  call void @llvm.lifetime.end.p0(i64 8, ptr %7) #9
  call void @llvm.lifetime.end.p0(i64 8, ptr %6) #9
  call void @llvm.lifetime.end.p0(i64 8, ptr %5) #9
  call void @llvm.lifetime.end.p0(i64 8, ptr %4) #9
  %76 = load ptr, ptr %2, align 8
  ret ptr %76
}