; Function Attrs: nounwind uwtable
define internal ptr @filter_next(ptr noundef readonly captures(none) %0) #0 {
  %2 = getelementptr inbounds nuw i8, ptr %0, i64 24
  %3 = load ptr, ptr %2, align 8, !tbaa !34
  %4 = getelementptr inbounds nuw i8, ptr %0, i64 16
  %5 = load ptr, ptr %4, align 8, !tbaa !31
  %6 = icmp eq ptr %5, @_Py_NoneStruct
  %7 = icmp eq ptr %5, @PyBool_Type
  %spec.select = or i1 %6, %7
  %8 = getelementptr i8, ptr %3, i64 8
  %.val = load ptr, ptr %8, align 8, !tbaa !20
  %9 = getelementptr inbounds nuw i8, ptr %.val, i64 224
  %10 = load ptr, ptr %9, align 8, !tbaa !37
  %spec.select.fr = freeze i1 %spec.select
  br i1 %spec.select.fr, label %.split.us, label %.split

.split.us:                                        ; preds = %1, %Py_DECREF.exit31.us
  %11 = tail call ptr %10(ptr noundef %3) #9
  %12 = icmp eq ptr %11, null
  br i1 %12, label %Py_DECREF.exit.thread, label %Py_DECREF.exit.us

Py_DECREF.exit.us:                                ; preds = %.split.us
  %13 = tail call i32 @PyObject_IsTrue(ptr noundef nonnull %11) #9
  %14 = icmp sgt i32 %13, 0
  br i1 %14, label %Py_DECREF.exit.thread, label %15

15:                                               ; preds = %Py_DECREF.exit.us
  %16 = load i32, ptr %11, align 8, !tbaa !33
  %.not.i30.us = icmp sgt i32 %16, -1
  br i1 %.not.i30.us, label %17, label %Py_DECREF.exit31.us

17:                                               ; preds = %15
  %18 = add nsw i32 %16, -1
  store i32 %18, ptr %11, align 8, !tbaa !33
  %19 = icmp eq i32 %18, 0
  br i1 %19, label %20, label %Py_DECREF.exit31.us

20:                                               ; preds = %17
  tail call void @_Py_Dealloc(ptr noundef nonnull %11) #9
  br label %Py_DECREF.exit31.us

Py_DECREF.exit31.us:                              ; preds = %20, %17, %15
  %21 = icmp slt i32 %13, 0
  br i1 %21, label %Py_DECREF.exit.thread, label %.split.us

.split:                                           ; preds = %1, %Py_DECREF.exit31
  %22 = tail call ptr %10(ptr noundef %3) #9
  %23 = icmp eq ptr %22, null
  br i1 %23, label %Py_DECREF.exit.thread, label %24

24:                                               ; preds = %.split
  %25 = load ptr, ptr %4, align 8, !tbaa !31
  %26 = tail call ptr @PyObject_CallOneArg(ptr noundef %25, ptr noundef nonnull %22) #9
  %.not = icmp eq ptr %26, null
  br i1 %.not, label %27, label %33

27:                                               ; preds = %24
  %28 = load i32, ptr %22, align 8, !tbaa !33
  %.not.i = icmp sgt i32 %28, -1
  br i1 %.not.i, label %29, label %Py_DECREF.exit.thread

29:                                               ; preds = %27
  %30 = add nsw i32 %28, -1
  store i32 %30, ptr %22, align 8, !tbaa !33
  %31 = icmp eq i32 %30, 0
  br i1 %31, label %32, label %Py_DECREF.exit.thread

32:                                               ; preds = %29
  tail call void @_Py_Dealloc(ptr noundef nonnull %22) #9
  br label %Py_DECREF.exit.thread

33:                                               ; preds = %24
  %34 = tail call i32 @PyObject_IsTrue(ptr noundef nonnull %26) #9
  %35 = load i32, ptr %26, align 8, !tbaa !33
  %.not.i28 = icmp sgt i32 %35, -1
  br i1 %.not.i28, label %36, label %Py_DECREF.exit

36:                                               ; preds = %33
  %37 = add nsw i32 %35, -1
  store i32 %37, ptr %26, align 8, !tbaa !33
  %38 = icmp eq i32 %37, 0
  br i1 %38, label %39, label %Py_DECREF.exit

39:                                               ; preds = %36
  tail call void @_Py_Dealloc(ptr noundef nonnull %26) #9
  br label %Py_DECREF.exit

Py_DECREF.exit:                                   ; preds = %33, %36, %39
  %40 = icmp sgt i32 %34, 0
  br i1 %40, label %Py_DECREF.exit.thread, label %41

41:                                               ; preds = %Py_DECREF.exit
  %42 = load i32, ptr %22, align 8, !tbaa !33
  %.not.i30 = icmp sgt i32 %42, -1
  br i1 %.not.i30, label %43, label %Py_DECREF.exit31

43:                                               ; preds = %41
  %44 = add nsw i32 %42, -1
  store i32 %44, ptr %22, align 8, !tbaa !33
  %45 = icmp eq i32 %44, 0
  br i1 %45, label %46, label %Py_DECREF.exit31

46:                                               ; preds = %43
  tail call void @_Py_Dealloc(ptr noundef nonnull %22) #9
  br label %Py_DECREF.exit31

Py_DECREF.exit31:                                 ; preds = %41, %43, %46
  %47 = icmp slt i32 %34, 0
  br i1 %47, label %Py_DECREF.exit.thread, label %.split

Py_DECREF.exit.thread:                            ; preds = %.split, %Py_DECREF.exit, %Py_DECREF.exit31, %Py_DECREF.exit31.us, %Py_DECREF.exit.us, %.split.us, %27, %29, %32
  %.1 = phi ptr [ null, %32 ], [ null, %29 ], [ null, %27 ], [ null, %Py_DECREF.exit31.us ], [ %11, %Py_DECREF.exit.us ], [ null, %.split.us ], [ null, %Py_DECREF.exit31 ], [ %22, %Py_DECREF.exit ], [ null, %.split ]
  ret ptr %.1
}